; ModuleID = '55/156.c'
source_filename = "55/156.c"
target datalayout = "e-m:e-p270:32:32-p271:32:32-p272:64:64-i64:64-f80:128-n8:16:32:64-S128"
target triple = "x86_64-pc-linux-gnu"

@.str = private unnamed_addr constant [9 x i8] c"%d %s %d\00", align 1
@.str.1 = private unnamed_addr constant [3 x i8] c"%c\00", align 1
@.str.2 = private unnamed_addr constant [2 x i8] c"\0A\00", align 1

; Function Attrs: noinline nounwind uwtable
define dso_local i32 @main(i32 %0, i8** %1) #0 {
  %3 = alloca i32, align 4
  %4 = alloca i32, align 4
  %5 = alloca i8**, align 8
  %6 = alloca i32, align 4
  %7 = alloca i32, align 4
  %8 = alloca i32, align 4
  %9 = alloca i32, align 4
  %10 = alloca i32, align 4
  %11 = alloca i32, align 4
  %12 = alloca i32, align 4
  %13 = alloca i32, align 4
  %14 = alloca [51 x i8], align 16
  store i32 0, i32* %3, align 4
  store i32 %0, i32* %4, align 4
  store i8** %1, i8*** %5, align 8
  store i32 0, i32* %12, align 4
  store i32 0, i32* %13, align 4
  %15 = getelementptr inbounds [51 x i8], [51 x i8]* %14, i64 0, i64 0
  %16 = call i32 (i8*, ...) @__isoc99_scanf(i8* getelementptr inbounds ([9 x i8], [9 x i8]* @.str, i64 0, i64 0), i32* %6, i8* %15, i32* %7)
  %17 = getelementptr inbounds [51 x i8], [51 x i8]* %14, i64 0, i64 0
  %18 = call i64 @strlen(i8* %17) #3
  %19 = trunc i64 %18 to i32
  store i32 %19, i32* %10, align 4
  store i32 0, i32* %8, align 4
  br label %20

20:                                               ; preds = %53, %2
  %21 = load i32, i32* %8, align 4
  %22 = sext i32 %21 to i64
  %23 = getelementptr inbounds [51 x i8], [51 x i8]* %14, i64 0, i64 %22
  %24 = load i8, i8* %23, align 1
  %25 = sext i8 %24 to i32
  %26 = icmp ne i32 %25, 0
  br i1 %26, label %27, label %56

27:                                               ; preds = %20
  %28 = load i32, i32* %8, align 4
  %29 = sext i32 %28 to i64
  %30 = getelementptr inbounds [51 x i8], [51 x i8]* %14, i64 0, i64 %29
  %31 = load i8, i8* %30, align 1
  %32 = sext i8 %31 to i32
  %33 = icmp sge i32 %32, 97
  br i1 %33, label %34, label %52

34:                                               ; preds = %27
  %35 = load i32, i32* %8, align 4
  %36 = sext i32 %35 to i64
  %37 = getelementptr inbounds [51 x i8], [51 x i8]* %14, i64 0, i64 %36
  %38 = load i8, i8* %37, align 1
  %39 = sext i8 %38 to i32
  %40 = icmp sle i32 %39, 122
  br i1 %40, label %41, label %52

41:                                               ; preds = %34
  %42 = load i32, i32* %8, align 4
  %43 = sext i32 %42 to i64
  %44 = getelementptr inbounds [51 x i8], [51 x i8]* %14, i64 0, i64 %43
  %45 = load i8, i8* %44, align 1
  %46 = sext i8 %45 to i32
  %47 = sub nsw i32 %46, 32
  %48 = trunc i32 %47 to i8
  %49 = load i32, i32* %8, align 4
  %50 = sext i32 %49 to i64
  %51 = getelementptr inbounds [51 x i8], [51 x i8]* %14, i64 0, i64 %50
  store i8 %48, i8* %51, align 1
  br label %52

52:                                               ; preds = %41, %34, %27
  br label %53

53:                                               ; preds = %52
  %54 = load i32, i32* %8, align 4
  %55 = add nsw i32 %54, 1
  store i32 %55, i32* %8, align 4
  br label %20

56:                                               ; preds = %20
  store i32 0, i32* %8, align 4
  br label %57

57:                                               ; preds = %111, %56
  %58 = load i32, i32* %8, align 4
  %59 = sext i32 %58 to i64
  %60 = getelementptr inbounds [51 x i8], [51 x i8]* %14, i64 0, i64 %59
  %61 = load i8, i8* %60, align 1
  %62 = sext i8 %61 to i32
  %63 = icmp ne i32 %62, 0
  br i1 %63, label %64, label %114

64:                                               ; preds = %57
  %65 = load i32, i32* %8, align 4
  %66 = sext i32 %65 to i64
  %67 = getelementptr inbounds [51 x i8], [51 x i8]* %14, i64 0, i64 %66
  %68 = load i8, i8* %67, align 1
  %69 = sext i8 %68 to i32
  %70 = icmp sge i32 %69, 65
  br i1 %70, label %71, label %85

71:                                               ; preds = %64
  %72 = load i32, i32* %8, align 4
  %73 = sext i32 %72 to i64
  %74 = getelementptr inbounds [51 x i8], [51 x i8]* %14, i64 0, i64 %73
  %75 = load i8, i8* %74, align 1
  %76 = sext i8 %75 to i32
  %77 = icmp sle i32 %76, 90
  br i1 %77, label %78, label %85

78:                                               ; preds = %71
  %79 = load i32, i32* %8, align 4
  %80 = sext i32 %79 to i64
  %81 = getelementptr inbounds [51 x i8], [51 x i8]* %14, i64 0, i64 %80
  %82 = load i8, i8* %81, align 1
  %83 = sext i8 %82 to i32
  %84 = sub nsw i32 %83, 55
  store i32 %84, i32* %11, align 4
  br label %92

85:                                               ; preds = %71, %64
  %86 = load i32, i32* %8, align 4
  %87 = sext i32 %86 to i64
  %88 = getelementptr inbounds [51 x i8], [51 x i8]* %14, i64 0, i64 %87
  %89 = load i8, i8* %88, align 1
  %90 = sext i8 %89 to i32
  %91 = sub nsw i32 %90, 48
  store i32 %91, i32* %11, align 4
  br label %92

92:                                               ; preds = %85, %78
  store i32 0, i32* %9, align 4
  br label %93

93:                                               ; preds = %104, %92
  %94 = load i32, i32* %9, align 4
  %95 = load i32, i32* %10, align 4
  %96 = load i32, i32* %8, align 4
  %97 = sub nsw i32 %95, %96
  %98 = sub nsw i32 %97, 1
  %99 = icmp slt i32 %94, %98
  br i1 %99, label %100, label %107

100:                                              ; preds = %93
  %101 = load i32, i32* %11, align 4
  %102 = load i32, i32* %6, align 4
  %103 = mul nsw i32 %101, %102
  store i32 %103, i32* %11, align 4
  br label %104

104:                                              ; preds = %100
  %105 = load i32, i32* %9, align 4
  %106 = add nsw i32 %105, 1
  store i32 %106, i32* %9, align 4
  br label %93

107:                                              ; preds = %93
  %108 = load i32, i32* %12, align 4
  %109 = load i32, i32* %11, align 4
  %110 = add nsw i32 %108, %109
  store i32 %110, i32* %12, align 4
  br label %111

111:                                              ; preds = %107
  %112 = load i32, i32* %8, align 4
  %113 = add nsw i32 %112, 1
  store i32 %113, i32* %8, align 4
  br label %57

114:                                              ; preds = %57
  store i32 50, i32* %8, align 4
  br label %115

115:                                              ; preds = %163, %114
  %116 = load i32, i32* %8, align 4
  %117 = icmp sge i32 %116, 0
  br i1 %117, label %118, label %166

118:                                              ; preds = %115
  %119 = load i32, i32* %12, align 4
  %120 = load i32, i32* %7, align 4
  %121 = srem i32 %119, %120
  %122 = icmp sge i32 %121, 0
  br i1 %122, label %123, label %137

123:                                              ; preds = %118
  %124 = load i32, i32* %12, align 4
  %125 = load i32, i32* %7, align 4
  %126 = srem i32 %124, %125
  %127 = icmp sle i32 %126, 9
  br i1 %127, label %128, label %137

128:                                              ; preds = %123
  %129 = load i32, i32* %12, align 4
  %130 = load i32, i32* %7, align 4
  %131 = srem i32 %129, %130
  %132 = add nsw i32 %131, 48
  %133 = trunc i32 %132 to i8
  %134 = load i32, i32* %8, align 4
  %135 = sext i32 %134 to i64
  %136 = getelementptr inbounds [51 x i8], [51 x i8]* %14, i64 0, i64 %135
  store i8 %133, i8* %136, align 1
  br label %137

137:                                              ; preds = %128, %123, %118
  %138 = load i32, i32* %12, align 4
  %139 = load i32, i32* %7, align 4
  %140 = srem i32 %138, %139
  %141 = icmp sge i32 %140, 10
  br i1 %141, label %142, label %151

142:                                              ; preds = %137
  %143 = load i32, i32* %12, align 4
  %144 = load i32, i32* %7, align 4
  %145 = srem i32 %143, %144
  %146 = add nsw i32 %145, 55
  %147 = trunc i32 %146 to i8
  %148 = load i32, i32* %8, align 4
  %149 = sext i32 %148 to i64
  %150 = getelementptr inbounds [51 x i8], [51 x i8]* %14, i64 0, i64 %149
  store i8 %147, i8* %150, align 1
  br label %151

151:                                              ; preds = %142, %137
  %152 = load i32, i32* %12, align 4
  %153 = load i32, i32* %12, align 4
  %154 = load i32, i32* %7, align 4
  %155 = srem i32 %153, %154
  %156 = sub nsw i32 %152, %155
  %157 = load i32, i32* %7, align 4
  %158 = sdiv i32 %156, %157
  store i32 %158, i32* %12, align 4
  %159 = load i32, i32* %12, align 4
  %160 = icmp eq i32 %159, 0
  br i1 %160, label %161, label %162

161:                                              ; preds = %151
  br label %166

162:                                              ; preds = %151
  br label %163

163:                                              ; preds = %162
  %164 = load i32, i32* %8, align 4
  %165 = add nsw i32 %164, -1
  store i32 %165, i32* %8, align 4
  br label %115

166:                                              ; preds = %161, %115
  %167 = load i32, i32* %8, align 4
  store i32 %167, i32* %9, align 4
  br label %168

168:                                              ; preds = %178, %166
  %169 = load i32, i32* %9, align 4
  %170 = icmp slt i32 %169, 51
  br i1 %170, label %171, label %181

171:                                              ; preds = %168
  %172 = load i32, i32* %9, align 4
  %173 = sext i32 %172 to i64
  %174 = getelementptr inbounds [51 x i8], [51 x i8]* %14, i64 0, i64 %173
  %175 = load i8, i8* %174, align 1
  %176 = sext i8 %175 to i32
  %177 = call i32 (i8*, ...) @printf(i8* getelementptr inbounds ([3 x i8], [3 x i8]* @.str.1, i64 0, i64 0), i32 %176)
  br label %178

178:                                              ; preds = %171
  %179 = load i32, i32* %9, align 4
  %180 = add nsw i32 %179, 1
  store i32 %180, i32* %9, align 4
  br label %168

181:                                              ; preds = %168
  %182 = call i32 (i8*, ...) @printf(i8* getelementptr inbounds ([2 x i8], [2 x i8]* @.str.2, i64 0, i64 0))
  ret i32 0
}

declare dso_local i32 @__isoc99_scanf(i8*, ...) #1

; Function Attrs: nounwind readonly
declare dso_local i64 @strlen(i8*) #2

declare dso_local i32 @printf(i8*, ...) #1


!llvm.module.flags = !{!0}
!llvm.ident = !{!1}

!0 = !{i32 1, !"wchar_size", i32 4}
!1 = !{!"clang version 10.0.0-4ubuntu1 "}
